Certificate:
    Data:
        Version: 1 (0x0)
        Serial Number: 17809724386367418987 (0xf728d9f82d0ab26b)
    Signature Algorithm: sha256WithRSAEncryption
        Issuer: C=BE, ST=Diegem, O=AdobeIO, OU=ACS, CN=adobeio.com/emailAddress=toon.mine@capgemini.com
        Validity
            Not Before: Sep 26 06:24:43 2018 GMT
            Not After : Sep 17 06:24:43 2019 GMT
        Subject: C=BE, ST=Diegem, O=AdobeIO, OU=ACS, CN=adobeio.com/emailAddress=toon.mine@capgemini.com
        Subject Public Key Info:
            Public Key Algorithm: rsaEncryption
                Public-Key: (2048 bit)
                Modulus:
                    00:e6:15:aa:05:f3:2c:3e:1e:5c:20:10:25:b0:95:
                    53:81:08:56:b3:d0:f1:f5:b4:9f:89:fd:a2:4b:0a:
                    bb:ba:a1:7c:53:46:c8:17:a7:a8:9d:ec:ad:ef:50:
                    9d:14:21:07:43:85:56:1f:2a:8e:af:55:b3:0e:d2:
                    38:30:8a:cf:2a:a5:05:27:32:93:e7:fa:51:a6:89:
                    1b:8c:d5:28:c3:21:62:e8:b2:7f:19:24:b8:20:37:
                    ef:4a:09:ad:7d:f8:e8:4a:19:52:d6:75:ec:3b:59:
                    05:91:62:b0:65:19:96:18:37:c1:d6:0c:27:9c:69:
                    74:82:b8:3b:c2:f3:ce:c1:11:99:a7:9e:12:1d:f7:
                    1e:7c:2a:d9:d4:01:c2:de:82:35:de:03:7e:f9:58:
                    03:09:bc:f2:e8:1c:16:6d:1c:0f:16:a2:48:87:b4:
                    98:3b:0d:3f:fe:b0:40:1c:9b:5d:33:f5:d2:85:8c:
                    57:88:b3:69:4d:3f:ac:03:f6:3f:19:9e:3c:26:4a:
                    c2:fb:fc:72:96:49:9b:35:f5:78:c6:55:8a:d2:fb:
                    56:2f:64:82:55:01:50:2f:f4:f8:28:8d:56:6b:1c:
                    87:82:3c:15:96:48:f3:0d:22:c0:92:75:43:56:aa:
                    88:49:f2:19:11:83:33:4a:96:b8:38:d6:99:38:55:
                    63:fd
                Exponent: 65537 (0x10001)
    Signature Algorithm: sha256WithRSAEncryption
         cb:df:b5:7d:c0:d1:e9:70:7e:6a:8e:06:70:83:2c:8e:93:fa:
         c2:7a:dc:e7:1e:4e:89:0f:b3:91:33:f7:d1:ec:b9:dc:cd:df:
         9b:cc:d8:be:c1:66:19:90:40:25:9a:11:e3:63:01:6f:3f:a6:
         53:d9:a6:e4:52:6a:7e:02:2a:15:a3:38:a9:e3:02:65:2e:1c:
         7f:87:6f:76:7b:4b:7b:bc:fd:aa:6b:75:73:a3:c6:5e:56:6d:
         d0:44:6d:ed:34:32:e3:5b:59:24:ec:16:0a:6a:db:04:6f:61:
         e3:48:0e:4f:7e:ab:03:d7:b4:c6:a0:3a:06:7b:c5:f0:fd:39:
         45:f8:d8:2b:7c:b8:81:a9:55:f3:ce:5f:d1:b5:ea:a0:41:df:
         4c:fd:6e:2b:ad:eb:52:bd:6d:fa:61:aa:82:d6:0d:f0:df:43:
         9a:93:f1:fb:db:ad:48:a6:93:c0:c8:0d:2f:8b:47:81:bd:62:
         91:08:d0:95:cd:fe:fa:35:55:e6:29:ee:6a:9c:e2:d1:f4:f7:
         e3:fe:d8:bb:9f:4c:90:a8:47:26:97:97:4b:cd:02:6f:fb:64:
         26:cd:49:a0:40:e2:5f:84:8f:95:ad:e4:3d:88:eb:d6:47:f7:
         c1:ca:a8:21:10:32:cd:dd:e4:33:04:58:15:76:c4:93:4c:90:
         c2:7d:bb:ce
-----BEGIN CERTIFICATE-----
MIIDdDCCAlwCCQD3KNn4LQqyazANBgkqhkiG9w0BAQsFADB8MQswCQYDVQQGEwJC
RTEPMA0GA1UECAwGRGllZ2VtMRAwDgYDVQQKDAdBZG9iZUlPMQwwCgYDVQQLDANB
Q1MxFDASBgNVBAMMC2Fkb2JlaW8uY29tMSYwJAYJKoZIhvcNAQkBFhd0b29uLm1p
bmVAY2FwZ2VtaW5pLmNvbTAeFw0xODA5MjYwNjI0NDNaFw0xOTA5MTcwNjI0NDNa
MHwxCzAJBgNVBAYTAkJFMQ8wDQYDVQQIDAZEaWVnZW0xEDAOBgNVBAoMB0Fkb2Jl
SU8xDDAKBgNVBAsMA0FDUzEUMBIGA1UEAwwLYWRvYmVpby5jb20xJjAkBgkqhkiG
9w0BCQEWF3Rvb24ubWluZUBjYXBnZW1pbmkuY29tMIIBIjANBgkqhkiG9w0BAQEF
AAOCAQ8AMIIBCgKCAQEA5hWqBfMsPh5cIBAlsJVTgQhWs9Dx9bSfif2iSwq7uqF8
U0bIF6eoneyt71CdFCEHQ4VWHyqOr1WzDtI4MIrPKqUFJzKT5/pRpokbjNUowyFi
6LJ/GSS4IDfvSgmtffjoShlS1nXsO1kFkWKwZRmWGDfB1gwnnGl0grg7wvPOwRGZ
p54SHfcefCrZ1AHC3oI13gN++VgDCbzy6BwWbRwPFqJIh7SYOw0//rBAHJtdM/XS
hYxXiLNpTT+sA/Y/GZ48JkrC+/xylkmbNfV4xlWK0vtWL2SCVQFQL/T4KI1WaxyH
gjwVlkjzDSLAknVDVqqISfIZEYMzSpa4ONaZOFVj/QIDAQABMA0GCSqGSIb3DQEB
CwUAA4IBAQDL37V9wNHpcH5qjgZwgyyOk/rCetznHk6JD7ORM/fR7Lnczd+bzNi+
wWYZkEAlmhHjYwFvP6ZT2abkUmp+AioVozip4wJlLhx/h292e0t7vP2qa3Vzo8Ze
Vm3QRG3tNDLjW1kk7BYKatsEb2HjSA5PfqsD17TGoDoGe8Xw/TlF+NgrfLiBqVXz
zl/RteqgQd9M/W4rretSvW36YaqC1g3w30Oak/H7261IppPAyA0vi0eBvWKRCNCV
zf76NVXmKe5qnOLR9Pfj/ti7n0yQqEcml5dLzQJv+2QmzUmgQOJfhI+VreQ9iOvW
R/fByqghEDLN3eQzBFgVdsSTTJDCfbvO
-----END CERTIFICATE-----
